; Function Attrs: mustprogress nofree norecurse nosync nounwind memory(read, argmem: readwrite, inaccessiblemem: none) uwtable
define internal noundef i64 @_ZNK5faiss12_GLOBAL__N_110IVFScannerINS_16HammingComputer8EE10scan_codesEmPKhPKlPfPlm(ptr nocapture noundef nonnull readonly align 8 dereferenceable(144) %0, i64 noundef %1, ptr nocapture noundef readonly %2, ptr nocapture noundef readonly %3, ptr nocapture noundef %4, ptr nocapture noundef %5, i64 noundef %6) unnamed_addr #17 align 2 {
  %.not24 = icmp eq i64 %1, 0
  br i1 %.not24, label %._crit_edge, label %.lr.ph

.lr.ph:                                           ; preds = %7
  %8 = getelementptr inbounds i8, ptr %0, i64 136
  %9 = getelementptr inbounds i8, ptr %0, i64 17
  %10 = getelementptr inbounds i8, ptr %0, i64 8
  %11 = getelementptr inbounds i8, ptr %4, i64 -4
  %12 = getelementptr inbounds i8, ptr %5, i64 -8
  %13 = icmp ult i64 %6, 2
  %.phi.trans.insert.i.i = getelementptr inbounds float, ptr %11, i64 %6
  %14 = getelementptr inbounds i8, ptr %0, i64 32
  br i1 %13, label %.lr.ph.split.us, label %.lr.ph.split

.lr.ph.split.us:                                  ; preds = %.lr.ph, %35
  %.023.us = phi ptr [ %37, %35 ], [ %2, %.lr.ph ]
  %.01722.us = phi i64 [ %.1.us, %35 ], [ 0, %.lr.ph ]
  %.01820.us = phi i64 [ %38, %35 ], [ 0, %.lr.ph ]
  %15 = load i64, ptr %.023.us, align 8
  %16 = load i64, ptr %8, align 8
  %17 = xor i64 %16, %15
  %18 = tail call i64 @llvm.ctpop.i64(i64 %17), !range !13
  %19 = trunc i64 %18 to i32
  %20 = sitofp i32 %19 to float
  %21 = load float, ptr %4, align 4
  %22 = fcmp ogt float %21, %20
  br i1 %22, label %23, label %35

23:                                               ; preds = %.lr.ph.split.us
  %24 = load i8, ptr %9, align 1
  %25 = and i8 %24, 1
  %.not.us = icmp eq i8 %25, 0
  br i1 %.not.us, label %30, label %26

26:                                               ; preds = %23
  %27 = load i64, ptr %10, align 8
  %28 = shl i64 %27, 32
  %29 = or i64 %28, %.01820.us
  br label %_ZN5faiss19maxheap_replace_topIfEEvmPT_PlS1_l.exit.us

30:                                               ; preds = %23
  %31 = getelementptr inbounds i64, ptr %3, i64 %.01820.us
  %32 = load i64, ptr %31, align 8
  br label %_ZN5faiss19maxheap_replace_topIfEEvmPT_PlS1_l.exit.us

_ZN5faiss19maxheap_replace_topIfEEvmPT_PlS1_l.exit.us: ; preds = %30, %26
  %33 = phi i64 [ %29, %26 ], [ %32, %30 ]
  store float %20, ptr %4, align 4
  store i64 %33, ptr %5, align 8
  %34 = add i64 %.01722.us, 1
  br label %35

35:                                               ; preds = %_ZN5faiss19maxheap_replace_topIfEEvmPT_PlS1_l.exit.us, %.lr.ph.split.us
  %.1.us = phi i64 [ %34, %_ZN5faiss19maxheap_replace_topIfEEvmPT_PlS1_l.exit.us ], [ %.01722.us, %.lr.ph.split.us ]
  %36 = load i64, ptr %14, align 8
  %37 = getelementptr inbounds i8, ptr %.023.us, i64 %36
  %38 = add nuw i64 %.01820.us, 1
  %exitcond26.not = icmp eq i64 %38, %1
  br i1 %exitcond26.not, label %._crit_edge, label %.lr.ph.split.us, !llvm.loop !29

.lr.ph.split:                                     ; preds = %.lr.ph, %96
  %.023 = phi ptr [ %98, %96 ], [ %2, %.lr.ph ]
  %.01722 = phi i64 [ %.1, %96 ], [ 0, %.lr.ph ]
  %.01820 = phi i64 [ %99, %96 ], [ 0, %.lr.ph ]
  %39 = load i64, ptr %.023, align 8
  %40 = load i64, ptr %8, align 8
  %41 = xor i64 %40, %39
  %42 = tail call i64 @llvm.ctpop.i64(i64 %41), !range !13
  %43 = trunc i64 %42 to i32
  %44 = sitofp i32 %43 to float
  %45 = load float, ptr %4, align 4
  %46 = fcmp ogt float %45, %44
  br i1 %46, label %47, label %96

47:                                               ; preds = %.lr.ph.split
  %48 = load i8, ptr %9, align 1
  %49 = and i8 %48, 1
  %.not = icmp eq i8 %49, 0
  br i1 %.not, label %54, label %50

50:                                               ; preds = %47
  %51 = load i64, ptr %10, align 8
  %52 = shl i64 %51, 32
  %53 = or i64 %52, %.01820
  br label %.lr.ph.preheader.i.i

54:                                               ; preds = %47
  %55 = getelementptr inbounds i64, ptr %3, i64 %.01820
  %56 = load i64, ptr %55, align 8
  br label %.lr.ph.preheader.i.i

.lr.ph.preheader.i.i:                             ; preds = %54, %50
  %57 = phi i64 [ %53, %50 ], [ %56, %54 ]
  br label %.lr.ph.i.i

.lr.ph.i.i:                                       ; preds = %86, %.lr.ph.preheader.i.i
  %58 = phi i64 [ %91, %86 ], [ 3, %.lr.ph.preheader.i.i ]
  %59 = phi i64 [ %90, %86 ], [ 2, %.lr.ph.preheader.i.i ]
  %.056.i.i = phi i64 [ %.1.i.i, %86 ], [ 1, %.lr.ph.preheader.i.i ]
  %60 = icmp eq i64 %59, %6
  br i1 %60, label %.lr.ph._ZN5faiss4CMaxIflE4cmp2Effll.exit.thread_crit_edge.i.i, label %61

.lr.ph._ZN5faiss4CMaxIflE4cmp2Effll.exit.thread_crit_edge.i.i: ; preds = %.lr.ph.i.i
  %.pre.i.i = load float, ptr %.phi.trans.insert.i.i, align 4
  br label %_ZN5faiss4CMaxIflE4cmp2Effll.exit.thread.i.i

61:                                               ; preds = %.lr.ph.i.i
  %62 = getelementptr inbounds float, ptr %11, i64 %59
  %63 = load float, ptr %62, align 4
  %64 = getelementptr inbounds float, ptr %11, i64 %58
  %65 = load float, ptr %64, align 4
  %66 = getelementptr inbounds i64, ptr %12, i64 %58
  %67 = load i64, ptr %66, align 8
  %68 = fcmp ogt float %63, %65
  br i1 %68, label %_ZN5faiss4CMaxIflE4cmp2Effll.exit.thread.i.i, label %_ZN5faiss4CMaxIflE4cmp2Effll.exit.i.i

_ZN5faiss4CMaxIflE4cmp2Effll.exit.i.i:            ; preds = %61
  %69 = getelementptr inbounds i64, ptr %12, i64 %59
  %70 = load i64, ptr %69, align 8
  %71 = fcmp oeq float %63, %65
  %72 = icmp sgt i64 %70, %67
  %73 = and i1 %71, %72
  br i1 %73, label %_ZN5faiss4CMaxIflE4cmp2Effll.exit.thread.i.i, label %81

_ZN5faiss4CMaxIflE4cmp2Effll.exit.thread.i.i:     ; preds = %_ZN5faiss4CMaxIflE4cmp2Effll.exit.i.i, %61, %.lr.ph._ZN5faiss4CMaxIflE4cmp2Effll.exit.thread_crit_edge.i.i
  %74 = phi float [ %.pre.i.i, %.lr.ph._ZN5faiss4CMaxIflE4cmp2Effll.exit.thread_crit_edge.i.i ], [ %63, %61 ], [ %63, %_ZN5faiss4CMaxIflE4cmp2Effll.exit.i.i ]
  %75 = fcmp olt float %74, %44
  br i1 %75, label %_ZN5faiss19maxheap_replace_topIfEEvmPT_PlS1_l.exit.loopexit, label %_ZN5faiss4CMaxIflE4cmp2Effll.exit54.i.i

_ZN5faiss4CMaxIflE4cmp2Effll.exit54.i.i:          ; preds = %_ZN5faiss4CMaxIflE4cmp2Effll.exit.thread.i.i
  %76 = getelementptr inbounds i64, ptr %12, i64 %59
  %77 = load i64, ptr %76, align 8
  %78 = fcmp oeq float %74, %44
  %79 = icmp slt i64 %77, %57
  %80 = and i1 %78, %79
  br i1 %80, label %_ZN5faiss19maxheap_replace_topIfEEvmPT_PlS1_l.exit.loopexit, label %86

81:                                               ; preds = %_ZN5faiss4CMaxIflE4cmp2Effll.exit.i.i
  %82 = fcmp olt float %65, %44
  br i1 %82, label %_ZN5faiss19maxheap_replace_topIfEEvmPT_PlS1_l.exit.loopexit, label %_ZN5faiss4CMaxIflE4cmp2Effll.exit55.i.i

_ZN5faiss4CMaxIflE4cmp2Effll.exit55.i.i:          ; preds = %81
  %83 = fcmp oeq float %65, %44
  %84 = icmp slt i64 %67, %57
  %85 = and i1 %83, %84
  br i1 %85, label %_ZN5faiss19maxheap_replace_topIfEEvmPT_PlS1_l.exit.loopexit, label %86

86:                                               ; preds = %_ZN5faiss4CMaxIflE4cmp2Effll.exit55.i.i, %_ZN5faiss4CMaxIflE4cmp2Effll.exit54.i.i
  %.sink.i.i = phi float [ %74, %_ZN5faiss4CMaxIflE4cmp2Effll.exit54.i.i ], [ %65, %_ZN5faiss4CMaxIflE4cmp2Effll.exit55.i.i ]
  %.sink63.i.i = phi ptr [ %76, %_ZN5faiss4CMaxIflE4cmp2Effll.exit54.i.i ], [ %66, %_ZN5faiss4CMaxIflE4cmp2Effll.exit55.i.i ]
  %.1.i.i = phi i64 [ %59, %_ZN5faiss4CMaxIflE4cmp2Effll.exit54.i.i ], [ %58, %_ZN5faiss4CMaxIflE4cmp2Effll.exit55.i.i ]
  %87 = getelementptr inbounds float, ptr %11, i64 %.056.i.i
  store float %.sink.i.i, ptr %87, align 4
  %88 = load i64, ptr %.sink63.i.i, align 8
  %89 = getelementptr inbounds i64, ptr %12, i64 %.056.i.i
  store i64 %88, ptr %89, align 8
  %90 = shl i64 %.1.i.i, 1
  %91 = or disjoint i64 %90, 1
  %92 = icmp ugt i64 %90, %6
  br i1 %92, label %_ZN5faiss19maxheap_replace_topIfEEvmPT_PlS1_l.exit.loopexit, label %.lr.ph.i.i, !llvm.loop !27

_ZN5faiss19maxheap_replace_topIfEEvmPT_PlS1_l.exit.loopexit: ; preds = %86, %_ZN5faiss4CMaxIflE4cmp2Effll.exit55.i.i, %81, %_ZN5faiss4CMaxIflE4cmp2Effll.exit54.i.i, %_ZN5faiss4CMaxIflE4cmp2Effll.exit.thread.i.i
  %.0.lcssa.i.i.ph = phi i64 [ %.056.i.i, %81 ], [ %.056.i.i, %_ZN5faiss4CMaxIflE4cmp2Effll.exit.thread.i.i ], [ %.056.i.i, %_ZN5faiss4CMaxIflE4cmp2Effll.exit55.i.i ], [ %.056.i.i, %_ZN5faiss4CMaxIflE4cmp2Effll.exit54.i.i ], [ %.1.i.i, %86 ]
  %93 = getelementptr inbounds float, ptr %11, i64 %.0.lcssa.i.i.ph
  store float %44, ptr %93, align 4
  %94 = getelementptr inbounds i64, ptr %12, i64 %.0.lcssa.i.i.ph
  store i64 %57, ptr %94, align 8
  %95 = add i64 %.01722, 1
  br label %96

96:                                               ; preds = %_ZN5faiss19maxheap_replace_topIfEEvmPT_PlS1_l.exit.loopexit, %.lr.ph.split
  %.1 = phi i64 [ %95, %_ZN5faiss19maxheap_replace_topIfEEvmPT_PlS1_l.exit.loopexit ], [ %.01722, %.lr.ph.split ]
  %97 = load i64, ptr %14, align 8
  %98 = getelementptr inbounds i8, ptr %.023, i64 %97
  %99 = add nuw i64 %.01820, 1
  %exitcond.not = icmp eq i64 %99, %1
  br i1 %exitcond.not, label %._crit_edge, label %.lr.ph.split, !llvm.loop !29

._crit_edge:                                      ; preds = %96, %35, %7
  %.017.lcssa = phi i64 [ 0, %7 ], [ %.1.us, %35 ], [ %.1, %96 ]
  ret i64 %.017.lcssa
}